target datalayout = "e-m:e-p270:32:32-p271:32:32-p272:64:64-i64:64-i128:128-f80:128-n8:16:32:64-S128"
target triple = "x86_64-unknown-linux-gnu"

%"class.icu_75::UObject" = type { ptr }
%"class.icu_75::MeasureFormat" = type { %"class.icu_75::Format.base", ptr, ptr, ptr, i32, ptr }
%"class.icu_75::Format.base" = type <{ %"class.icu_75::UObject", [157 x i8], [157 x i8] }>

; Function Attrs: mustprogress uwtable
define void @_ZN6icu_7513MeasureFormatC2ERKS0_(ptr noundef nonnull align 8 dereferenceable(368) %this, ptr noundef nonnull align 8 dereferenceable(368) %other) unnamed_addr #1 align 2 personality ptr @__gxx_personality_v0 {
entry:
  %this.addr = alloca ptr, align 8
  %other.addr = alloca ptr, align 8
  %exn.slot = alloca ptr, align 8
  %ehselector.slot = alloca i32, align 4
  %saved-rvalue = alloca ptr, align 8
  %cleanup.cond = alloca i1, align 1
  store ptr %this, ptr %this.addr, align 8
  store ptr %other, ptr %other.addr, align 8
  %this1 = load ptr, ptr %this.addr, align 8
  %0 = load ptr, ptr %other.addr, align 8
  call void @_ZN6icu_756FormatC2ERKS0_(ptr noundef nonnull align 8 dereferenceable(322) %this1, ptr noundef nonnull align 8 dereferenceable(322) %0)
  store ptr getelementptr inbounds ({ [10 x ptr] }, ptr @_ZTVN6icu_7513MeasureFormatE, i32 0, i32 0, i32 2), ptr %this1, align 8
  %cache = getelementptr inbounds %"class.icu_75::MeasureFormat", ptr %this1, i32 0, i32 1
  %1 = load ptr, ptr %other.addr, align 8
  %cache2 = getelementptr inbounds %"class.icu_75::MeasureFormat", ptr %1, i32 0, i32 1
  %2 = load ptr, ptr %cache2, align 8
  store ptr %2, ptr %cache, align 8
  %numberFormat = getelementptr inbounds %"class.icu_75::MeasureFormat", ptr %this1, i32 0, i32 2
  %3 = load ptr, ptr %other.addr, align 8
  %numberFormat3 = getelementptr inbounds %"class.icu_75::MeasureFormat", ptr %3, i32 0, i32 2
  %4 = load ptr, ptr %numberFormat3, align 8
  store ptr %4, ptr %numberFormat, align 8
  %pluralRules = getelementptr inbounds %"class.icu_75::MeasureFormat", ptr %this1, i32 0, i32 3
  %5 = load ptr, ptr %other.addr, align 8
  %pluralRules4 = getelementptr inbounds %"class.icu_75::MeasureFormat", ptr %5, i32 0, i32 3
  %6 = load ptr, ptr %pluralRules4, align 8
  store ptr %6, ptr %pluralRules, align 8
  %fWidth = getelementptr inbounds %"class.icu_75::MeasureFormat", ptr %this1, i32 0, i32 4
  %7 = load ptr, ptr %other.addr, align 8
  %fWidth5 = getelementptr inbounds %"class.icu_75::MeasureFormat", ptr %7, i32 0, i32 4
  %8 = load i32, ptr %fWidth5, align 8
  store i32 %8, ptr %fWidth, align 8
  %listFormatter = getelementptr inbounds %"class.icu_75::MeasureFormat", ptr %this1, i32 0, i32 5
  store ptr null, ptr %listFormatter, align 8
  %cache6 = getelementptr inbounds %"class.icu_75::MeasureFormat", ptr %this1, i32 0, i32 1
  %9 = load ptr, ptr %cache6, align 8
  invoke void @_ZNK6icu_7512SharedObject6addRefEv(ptr noundef nonnull align 8 dereferenceable(24) %9)
          to label %invoke.cont unwind label %lpad

invoke.cont:                                      ; preds = %entry
  %numberFormat7 = getelementptr inbounds %"class.icu_75::MeasureFormat", ptr %this1, i32 0, i32 2
  %10 = load ptr, ptr %numberFormat7, align 8
  invoke void @_ZNK6icu_7512SharedObject6addRefEv(ptr noundef nonnull align 8 dereferenceable(24) %10)
          to label %invoke.cont8 unwind label %lpad

invoke.cont8:                                     ; preds = %invoke.cont
  %pluralRules9 = getelementptr inbounds %"class.icu_75::MeasureFormat", ptr %this1, i32 0, i32 3
  %11 = load ptr, ptr %pluralRules9, align 8
  invoke void @_ZNK6icu_7512SharedObject6addRefEv(ptr noundef nonnull align 8 dereferenceable(24) %11)
          to label %invoke.cont10 unwind label %lpad

invoke.cont10:                                    ; preds = %invoke.cont8
  %12 = load ptr, ptr %other.addr, align 8
  %listFormatter11 = getelementptr inbounds %"class.icu_75::MeasureFormat", ptr %12, i32 0, i32 5
  %13 = load ptr, ptr %listFormatter11, align 8
  %cmp = icmp ne ptr %13, null
  br i1 %cmp, label %if.then, label %if.end

if.then:                                          ; preds = %invoke.cont10
  %call = call noundef ptr @_ZN6icu_757UMemorynwEm(i64 noundef 24) #12
  %new.isnull = icmp eq ptr %call, null
  store i1 false, ptr %cleanup.cond, align 1
  br i1 %new.isnull, label %new.cont, label %new.notnull

new.notnull:                                      ; preds = %if.then
  store ptr %call, ptr %saved-rvalue, align 8
  store i1 true, ptr %cleanup.cond, align 1
  %14 = load ptr, ptr %other.addr, align 8
  %listFormatter12 = getelementptr inbounds %"class.icu_75::MeasureFormat", ptr %14, i32 0, i32 5
  %15 = load ptr, ptr %listFormatter12, align 8
  invoke void @_ZN6icu_7513ListFormatterC1ERKS0_(ptr noundef nonnull align 8 dereferenceable(24) %call, ptr noundef nonnull align 8 dereferenceable(24) %15)
          to label %invoke.cont14 unwind label %lpad13

invoke.cont14:                                    ; preds = %new.notnull
  br label %new.cont

new.cont:                                         ; preds = %invoke.cont14, %if.then
  %16 = phi ptr [ %call, %invoke.cont14 ], [ null, %if.then ]
  %listFormatter15 = getelementptr inbounds %"class.icu_75::MeasureFormat", ptr %this1, i32 0, i32 5
  store ptr %16, ptr %listFormatter15, align 8
  br label %if.end

lpad:                                             ; preds = %invoke.cont8, %invoke.cont, %entry
  %17 = landingpad { ptr, i32 }
          cleanup
  %18 = extractvalue { ptr, i32 } %17, 0
  store ptr %18, ptr %exn.slot, align 8
  %19 = extractvalue { ptr, i32 } %17, 1
  store i32 %19, ptr %ehselector.slot, align 4
  br label %ehcleanup

lpad13:                                           ; preds = %new.notnull
  %20 = landingpad { ptr, i32 }
          cleanup
  %21 = extractvalue { ptr, i32 } %20, 0
  store ptr %21, ptr %exn.slot, align 8
  %22 = extractvalue { ptr, i32 } %20, 1
  store i32 %22, ptr %ehselector.slot, align 4
  %cleanup.is_active = load i1, ptr %cleanup.cond, align 1
  br i1 %cleanup.is_active, label %cleanup.action, label %cleanup.done

cleanup.action:                                   ; preds = %lpad13
  %23 = load ptr, ptr %saved-rvalue, align 8
  call void @_ZN6icu_757UMemorydlEPv(ptr noundef %23) #12
  br label %cleanup.done

cleanup.done:                                     ; preds = %cleanup.action, %lpad13
  br label %ehcleanup

if.end:                                           ; preds = %new.cont, %invoke.cont10
  ret void

ehcleanup:                                        ; preds = %cleanup.done, %lpad
  call void @_ZN6icu_756FormatD2Ev(ptr noundef nonnull align 8 dereferenceable(322) %this1) #12
  br label %eh.resume

eh.resume:                                        ; preds = %ehcleanup
  %exn = load ptr, ptr %exn.slot, align 8
  %sel = load i32, ptr %ehselector.slot, align 4
  %lpad.val = insertvalue { ptr, i32 } poison, ptr %exn, 0
  %lpad.val16 = insertvalue { ptr, i32 } %lpad.val, i32 %sel, 1
  resume { ptr, i32 } %lpad.val16
}