; Function Attrs: mustprogress uwtable
define void @_ZN6icu_7513MeasureFormatC2ERKS0_(ptr noundef nonnull align 8 dereferenceable(368) %this, ptr noundef nonnull align 8 dereferenceable(368) %other) unnamed_addr #1 align 2 personality ptr @__gxx_personality_v0 {
entry:
  tail call void @_ZN6icu_756FormatC2ERKS0_(ptr noundef nonnull align 8 dereferenceable(322) %this, ptr noundef nonnull align 8 dereferenceable(322) %other)
  store ptr getelementptr inbounds ({ [10 x ptr] }, ptr @_ZTVN6icu_7513MeasureFormatE, i64 0, i32 0, i64 2), ptr %this, align 8
  %cache = getelementptr inbounds i8, ptr %this, i64 328
  %cache2 = getelementptr inbounds i8, ptr %other, i64 328
  %0 = load ptr, ptr %cache2, align 8
  store ptr %0, ptr %cache, align 8
  %numberFormat = getelementptr inbounds i8, ptr %this, i64 336
  %numberFormat3 = getelementptr inbounds i8, ptr %other, i64 336
  %1 = load ptr, ptr %numberFormat3, align 8
  store ptr %1, ptr %numberFormat, align 8
  %pluralRules = getelementptr inbounds i8, ptr %this, i64 344
  %pluralRules4 = getelementptr inbounds i8, ptr %other, i64 344
  %2 = load ptr, ptr %pluralRules4, align 8
  store ptr %2, ptr %pluralRules, align 8
  %fWidth = getelementptr inbounds i8, ptr %this, i64 352
  %fWidth5 = getelementptr inbounds i8, ptr %other, i64 352
  %3 = load i32, ptr %fWidth5, align 8
  store i32 %3, ptr %fWidth, align 8
  %listFormatter = getelementptr inbounds i8, ptr %this, i64 360
  store ptr null, ptr %listFormatter, align 8
  invoke void @_ZNK6icu_7512SharedObject6addRefEv(ptr noundef nonnull align 8 dereferenceable(24) %0)
          to label %invoke.cont unwind label %lpad

invoke.cont:                                      ; preds = %entry
  %4 = load ptr, ptr %numberFormat, align 8
  invoke void @_ZNK6icu_7512SharedObject6addRefEv(ptr noundef nonnull align 8 dereferenceable(24) %4)
          to label %invoke.cont8 unwind label %lpad

invoke.cont8:                                     ; preds = %invoke.cont
  %5 = load ptr, ptr %pluralRules, align 8
  invoke void @_ZNK6icu_7512SharedObject6addRefEv(ptr noundef nonnull align 8 dereferenceable(24) %5)
          to label %invoke.cont10 unwind label %lpad

invoke.cont10:                                    ; preds = %invoke.cont8
  %listFormatter11 = getelementptr inbounds i8, ptr %other, i64 360
  %6 = load ptr, ptr %listFormatter11, align 8
  %cmp.not = icmp eq ptr %6, null
  br i1 %cmp.not, label %if.end, label %if.then

if.then:                                          ; preds = %invoke.cont10
  %call = tail call noundef ptr @_ZN6icu_757UMemorynwEm(i64 noundef 24) #16
  %new.isnull = icmp eq ptr %call, null
  br i1 %new.isnull, label %new.cont, label %new.notnull

new.notnull:                                      ; preds = %if.then
  %7 = load ptr, ptr %listFormatter11, align 8
  invoke void @_ZN6icu_7513ListFormatterC1ERKS0_(ptr noundef nonnull align 8 dereferenceable(24) %call, ptr noundef nonnull align 8 dereferenceable(24) %7)
          to label %new.cont unwind label %lpad13

new.cont:                                         ; preds = %new.notnull, %if.then
  store ptr %call, ptr %listFormatter, align 8
  br label %if.end

lpad:                                             ; preds = %invoke.cont8, %invoke.cont, %entry
  %8 = landingpad { ptr, i32 }
          cleanup
  br label %ehcleanup

lpad13:                                           ; preds = %new.notnull
  %9 = landingpad { ptr, i32 }
          cleanup
  tail call void @_ZN6icu_757UMemorydlEPv(ptr noundef nonnull %call) #16
  br label %ehcleanup

if.end:                                           ; preds = %new.cont, %invoke.cont10
  ret void

ehcleanup:                                        ; preds = %lpad13, %lpad
  %.pn = phi { ptr, i32 } [ %9, %lpad13 ], [ %8, %lpad ]
  tail call void @_ZN6icu_756FormatD2Ev(ptr noundef nonnull align 8 dereferenceable(322) %this) #16
  resume { ptr, i32 } %.pn
}